; Function Attrs: nounwind uwtable
define hidden ptr @SXNET_get_id_asc(ptr noundef readonly captures(none) %sx, ptr noundef %zone) local_unnamed_addr #0 {
entry:
  %call = tail call ptr @s2i_ASN1_INTEGER(ptr noundef null, ptr noundef %zone) #4
  %tobool.not = icmp eq ptr %call, null
  br i1 %tobool.not, label %if.then, label %if.end

if.then:                                          ; preds = %entry
  tail call void @ERR_put_error(i32 noundef 20, i32 noundef 0, i32 noundef 108, ptr noundef nonnull @.str.2, i32 noundef 240) #4
  br label %return

if.end:                                           ; preds = %entry
  %ids.i = getelementptr inbounds nuw i8, ptr %sx, i64 8
  %0 = load ptr, ptr %ids.i, align 8
  %call5.i = tail call i64 @sk_num(ptr noundef %0) #4
  %cmp6.not.i = icmp eq i64 %call5.i, 0
  br i1 %cmp6.not.i, label %SXNET_get_id_INTEGER.exit, label %for.body.i

for.cond.i:                                       ; preds = %for.body.i
  %inc.i = add nuw i64 %i.07.i, 1
  %1 = load ptr, ptr %ids.i, align 8
  %call.i = tail call i64 @sk_num(ptr noundef %1) #4
  %cmp.i = icmp ult i64 %inc.i, %call.i
  br i1 %cmp.i, label %for.body.i, label %SXNET_get_id_INTEGER.exit, !llvm.loop !10

for.body.i:                                       ; preds = %if.end, %for.cond.i
  %i.07.i = phi i64 [ %inc.i, %for.cond.i ], [ 0, %if.end ]
  %2 = load ptr, ptr %ids.i, align 8
  %call2.i = tail call ptr @sk_value(ptr noundef %2, i64 noundef %i.07.i) #4
  %3 = load ptr, ptr %call2.i, align 8
  %call4.i = tail call i32 @ASN1_STRING_cmp(ptr noundef %3, ptr noundef nonnull %call) #4
  %tobool.not.i = icmp eq i32 %call4.i, 0
  br i1 %tobool.not.i, label %if.then.i, label %for.cond.i

if.then.i:                                        ; preds = %for.body.i
  %user.i = getelementptr inbounds nuw i8, ptr %call2.i, i64 8
  %4 = load ptr, ptr %user.i, align 8
  br label %SXNET_get_id_INTEGER.exit

SXNET_get_id_INTEGER.exit:                        ; preds = %for.cond.i, %if.end, %if.then.i
  %retval.0.i = phi ptr [ %4, %if.then.i ], [ null, %if.end ], [ null, %for.cond.i ]
  tail call void @ASN1_STRING_free(ptr noundef nonnull %call) #4
  br label %return

return:                                           ; preds = %SXNET_get_id_INTEGER.exit, %if.then
  %retval.0 = phi ptr [ %retval.0.i, %SXNET_get_id_INTEGER.exit ], [ null, %if.then ]
  ret ptr %retval.0
}